target datalayout = "e-m:e-p270:32:32-p271:32:32-p272:64:64-i64:64-i128:128-f80:128-n8:16:32:64-S128"
target triple = "x86_64-pc-linux-gnu"

%class.ll_printer = type { ptr, ptr, ptr, i8, i8, %class.arith_util, %"class.datatype::util" }
%class.arith_util = type { ptr, ptr }
%"class.datatype::util" = type { ptr, i32, ptr }
%class.ast = type { i32, i32, i32, i32 }

; Function Attrs: mustprogress nounwind uwtable
define linkonce_odr hidden noundef i32 @_ZNK3ast8get_kindEv(ptr noundef nonnull align 4 dereferenceable(16) %0) #7 comdat align 2 {
  %2 = alloca ptr, align 8
  store ptr %0, ptr %2, align 8, !tbaa !10
  %3 = load ptr, ptr %2, align 8
  %4 = getelementptr inbounds nuw %class.ast, ptr %3, i32 0, i32 1
  %5 = load i32, ptr %4, align 4
  %6 = and i32 %5, 65535
  ret i32 %6
}

; Function Attrs: inlinehint mustprogress nounwind uwtable
define linkonce_odr hidden noundef ptr @_Z7to_sortP3ast(ptr noundef %0) #8 comdat {
  %2 = alloca ptr, align 8
  store ptr %0, ptr %2, align 8, !tbaa !10
  %3 = load ptr, ptr %2, align 8, !tbaa !10
  ret ptr %3
}

; Function Attrs: inlinehint mustprogress uwtable
define linkonce_odr hidden noundef zeroext i1 @_Z7is_sortPK3ast(ptr noundef %0) #6 comdat {
  %2 = alloca ptr, align 8
  store ptr %0, ptr %2, align 8, !tbaa !10
  %3 = load ptr, ptr %2, align 8, !tbaa !10
  %4 = call noundef i32 @_ZNK3ast8get_kindEv(ptr noundef nonnull align 4 dereferenceable(16) %3)
  %5 = icmp eq i32 %4, 3
  ret i1 %5
}

; Function Attrs: mustprogress uwtable
define linkonce_odr hidden void @_ZN10ll_printer2ppEP3astR8ast_mark(ptr noundef nonnull align 8 dereferenceable(72) %0, ptr noundef %1, ptr noundef nonnull align 8 dereferenceable(56) %2) #4 comdat align 2 {
  %4 = alloca ptr, align 8
  %5 = alloca ptr, align 8
  %6 = alloca ptr, align 8
  store ptr %0, ptr %4, align 8, !tbaa !16
  store ptr %1, ptr %5, align 8, !tbaa !10
  store ptr %2, ptr %6, align 8, !tbaa !27
  %7 = load ptr, ptr %4, align 8
  %8 = load ptr, ptr %5, align 8, !tbaa !10
  %9 = call noundef zeroext i1 @_Z7is_sortPK3ast(ptr noundef %8)
  br i1 %9, label %10, label %13

10:                                               ; preds = %3
  %11 = load ptr, ptr %5, align 8, !tbaa !10
  %12 = call noundef ptr @_Z7to_sortP3ast(ptr noundef %11)
  call void @_ZN10ll_printer12display_sortEP4sort(ptr noundef nonnull align 8 dereferenceable(72) %7, ptr noundef %12)
  br label %16

13:                                               ; preds = %3
  %14 = load ptr, ptr %6, align 8, !tbaa !27
  %15 = load ptr, ptr %5, align 8, !tbaa !10
  call void @_Z12for_each_astI10ll_printerEvRT_R8ast_markP3astb(ptr noundef nonnull align 8 dereferenceable(72) %7, ptr noundef nonnull align 8 dereferenceable(56) %14, ptr noundef %15, i1 noundef zeroext true)
  br label %16

16:                                               ; preds = %13, %10
  ret void
}

; Function Attrs: mustprogress uwtable
define linkonce_odr hidden void @_ZN10ll_printerC2ERSoR11ast_managerP3astbb(ptr noundef nonnull align 8 dereferenceable(72) %0, ptr noundef nonnull align 8 dereferenceable(8) %1, ptr noundef nonnull align 8 dereferenceable(976) %2, ptr noundef %3, i1 noundef zeroext %4, i1 noundef zeroext %5) unnamed_addr #4 comdat align 2 {
  %7 = alloca ptr, align 8
  %8 = alloca ptr, align 8
  %9 = alloca ptr, align 8
  %10 = alloca ptr, align 8
  %11 = alloca i8, align 1
  %12 = alloca i8, align 1
  store ptr %0, ptr %7, align 8, !tbaa !16
  store ptr %1, ptr %8, align 8, !tbaa !3
  store ptr %2, ptr %9, align 8, !tbaa !8
  store ptr %3, ptr %10, align 8, !tbaa !10
  %13 = zext i1 %4 to i8
  store i8 %13, ptr %11, align 1, !tbaa !12
  %14 = zext i1 %5 to i8
  store i8 %14, ptr %12, align 1, !tbaa !12
  %15 = load ptr, ptr %7, align 8
  %16 = getelementptr inbounds nuw %class.ll_printer, ptr %15, i32 0, i32 0
  %17 = load ptr, ptr %8, align 8, !tbaa !3
  store ptr %17, ptr %16, align 8, !tbaa !3
  %18 = getelementptr inbounds nuw %class.ll_printer, ptr %15, i32 0, i32 1
  %19 = load ptr, ptr %9, align 8, !tbaa !8
  store ptr %19, ptr %18, align 8, !tbaa !8
  %20 = getelementptr inbounds nuw %class.ll_printer, ptr %15, i32 0, i32 2
  %21 = load ptr, ptr %10, align 8, !tbaa !10
  store ptr %21, ptr %20, align 8, !tbaa !18
  %22 = getelementptr inbounds nuw %class.ll_printer, ptr %15, i32 0, i32 3
  %23 = load i8, ptr %11, align 1, !tbaa !12, !range !14, !noundef !15
  %24 = trunc i8 %23 to i1
  %25 = zext i1 %24 to i8
  store i8 %25, ptr %22, align 8, !tbaa !25
  %26 = getelementptr inbounds nuw %class.ll_printer, ptr %15, i32 0, i32 4
  %27 = load i8, ptr %12, align 1, !tbaa !12, !range !14, !noundef !15
  %28 = trunc i8 %27 to i1
  %29 = zext i1 %28 to i8
  store i8 %29, ptr %26, align 1, !tbaa !26
  %30 = getelementptr inbounds nuw %class.ll_printer, ptr %15, i32 0, i32 5
  %31 = load ptr, ptr %9, align 8, !tbaa !8
  call void @_ZN10arith_utilC1ER11ast_manager(ptr noundef nonnull align 8 dereferenceable(16) %30, ptr noundef nonnull align 8 dereferenceable(976) %31)
  %32 = getelementptr inbounds nuw %class.ll_printer, ptr %15, i32 0, i32 6
  %33 = load ptr, ptr %9, align 8, !tbaa !8
  call void @_ZN8datatype4utilC1ER11ast_manager(ptr noundef nonnull align 8 dereferenceable(24) %32, ptr noundef nonnull align 8 dereferenceable(976) %33)
  ret void
}

; Function Attrs: mustprogress uwtable
define hidden void @_Z13ast_def_ll_ppRSoR11ast_managerP3astR8ast_markbb(ptr noundef nonnull align 8 dereferenceable(8) %0, ptr noundef nonnull align 8 dereferenceable(976) %1, ptr noundef %2, ptr noundef nonnull align 8 dereferenceable(56) %3, i1 noundef zeroext %4, i1 noundef zeroext %5) #4 {
  %7 = alloca ptr, align 8
  %8 = alloca ptr, align 8
  %9 = alloca ptr, align 8
  %10 = alloca ptr, align 8
  %11 = alloca i8, align 1
  %12 = alloca i8, align 1
  %13 = alloca %class.ll_printer, align 8
  store ptr %0, ptr %7, align 8, !tbaa !3
  store ptr %1, ptr %8, align 8, !tbaa !8
  store ptr %2, ptr %9, align 8, !tbaa !10
  store ptr %3, ptr %10, align 8, !tbaa !27
  %14 = zext i1 %4 to i8
  store i8 %14, ptr %11, align 1, !tbaa !12
  %15 = zext i1 %5 to i8
  store i8 %15, ptr %12, align 1, !tbaa !12
  call void @llvm.lifetime.start.p0(i64 72, ptr %13) #3
  %16 = load ptr, ptr %7, align 8, !tbaa !3
  %17 = load ptr, ptr %8, align 8, !tbaa !8
  %18 = load i8, ptr %11, align 1, !tbaa !12, !range !14, !noundef !15
  %19 = trunc i8 %18 to i1
  %20 = load i8, ptr %12, align 1, !tbaa !12, !range !14, !noundef !15
  %21 = trunc i8 %20 to i1
  call void @_ZN10ll_printerC2ERSoR11ast_managerP3astbb(ptr noundef nonnull align 8 dereferenceable(72) %13, ptr noundef nonnull align 8 dereferenceable(8) %16, ptr noundef nonnull align 8 dereferenceable(976) %17, ptr noundef null, i1 noundef zeroext %19, i1 noundef zeroext %21)
  %22 = load ptr, ptr %9, align 8, !tbaa !10
  %23 = load ptr, ptr %10, align 8, !tbaa !27
  call void @_ZN10ll_printer2ppEP3astR8ast_mark(ptr noundef nonnull align 8 dereferenceable(72) %13, ptr noundef %22, ptr noundef nonnull align 8 dereferenceable(56) %23)
  call void @llvm.lifetime.end.p0(i64 72, ptr %13) #3
  ret void
}