; Function Attrs: mustprogress uwtable
define hidden void @_Z13ast_def_ll_ppRSoR11ast_managerP3astR8ast_markbb(ptr noundef nonnull align 8 dereferenceable(8) %0, ptr noundef nonnull align 8 dereferenceable(976) %1, ptr noundef %2, ptr noundef nonnull align 8 dereferenceable(56) %3, i1 noundef zeroext %4, i1 noundef zeroext %5) local_unnamed_addr #3 {
  %7 = alloca %class.ll_printer, align 8
  call void @llvm.lifetime.start.p0(i64 72, ptr nonnull %7) #19
  %8 = zext i1 %4 to i8
  %9 = zext i1 %5 to i8
  store ptr %0, ptr %7, align 8, !tbaa !3
  %10 = getelementptr inbounds nuw i8, ptr %7, i64 8
  store ptr %1, ptr %10, align 8, !tbaa !8
  %11 = getelementptr inbounds nuw i8, ptr %7, i64 16
  store ptr null, ptr %11, align 8, !tbaa !10
  %12 = getelementptr inbounds nuw i8, ptr %7, i64 24
  store i8 %8, ptr %12, align 8, !tbaa !19
  %13 = getelementptr inbounds nuw i8, ptr %7, i64 25
  store i8 %9, ptr %13, align 1, !tbaa !20
  %14 = getelementptr inbounds nuw i8, ptr %7, i64 32
  call void @_ZN10arith_utilC1ER11ast_manager(ptr noundef nonnull align 8 dereferenceable(16) %14, ptr noundef nonnull align 8 dereferenceable(976) %1)
  %15 = getelementptr inbounds nuw i8, ptr %7, i64 48
  call void @_ZN8datatype4utilC1ER11ast_manager(ptr noundef nonnull align 8 dereferenceable(24) %15, ptr noundef nonnull align 8 dereferenceable(976) %1)
  %16 = getelementptr inbounds nuw i8, ptr %2, i64 4
  %17 = load i32, ptr %16, align 4
  %18 = and i32 %17, 65535
  %19 = icmp eq i32 %18, 3
  br i1 %19, label %20, label %21

20:                                               ; preds = %6
  call void @_ZN10ll_printer12display_sortEP4sort(ptr noundef nonnull align 8 dereferenceable(72) %7, ptr noundef nonnull %2)
  br label %_ZN10ll_printer2ppEP3astR8ast_mark.exit

21:                                               ; preds = %6
  call void @_Z12for_each_astI10ll_printerEvRT_R8ast_markP3astb(ptr noundef nonnull align 8 dereferenceable(72) %7, ptr noundef nonnull align 8 dereferenceable(56) %3, ptr noundef nonnull %2, i1 noundef zeroext true)
  br label %_ZN10ll_printer2ppEP3astR8ast_mark.exit

_ZN10ll_printer2ppEP3astR8ast_mark.exit:          ; preds = %20, %21
  call void @llvm.lifetime.end.p0(i64 72, ptr nonnull %7) #19
  ret void
}